target datalayout = "e-m:e-p270:32:32-p271:32:32-p272:64:64-i64:64-i128:128-f80:128-n8:16:32:64-S128"
target triple = "x86_64-pc-linux-gnu"

; Function Attrs: nounwind uwtable
define i32 @cuddComputeFloorLog2(i32 noundef %0) #0 {
  %2 = alloca i32, align 4
  %3 = alloca i32, align 4
  store i32 %0, ptr %2, align 4, !tbaa !8
  call void @llvm.lifetime.start.p0(i64 4, ptr %3) #6
  store i32 0, ptr %3, align 4, !tbaa !8
  br label %4

4:                                                ; preds = %7, %1
  %5 = load i32, ptr %2, align 4, !tbaa !8
  %6 = icmp ugt i32 %5, 1
  br i1 %6, label %7, label %12

7:                                                ; preds = %4
  %8 = load i32, ptr %3, align 4, !tbaa !8
  %9 = add nsw i32 %8, 1
  store i32 %9, ptr %3, align 4, !tbaa !8
  %10 = load i32, ptr %2, align 4, !tbaa !8
  %11 = lshr i32 %10, 1
  store i32 %11, ptr %2, align 4, !tbaa !8
  br label %4, !llvm.loop !51

12:                                               ; preds = %4
  %13 = load i32, ptr %3, align 4, !tbaa !8
  call void @llvm.lifetime.end.p0(i64 4, ptr %3) #6
  ret i32 %13
}