; Function Attrs: nofree norecurse nosync nounwind memory(none) uwtable
define i32 @cuddComputeFloorLog2(i32 noundef %0) local_unnamed_addr #1 {
  %2 = icmp ugt i32 %0, 1
  br i1 %2, label %.lr.ph, label %._crit_edge

.lr.ph:                                           ; preds = %1, %.lr.ph
  %.06 = phi i32 [ %3, %.lr.ph ], [ 0, %1 ]
  %.045 = phi i32 [ %4, %.lr.ph ], [ %0, %1 ]
  %3 = add nuw nsw i32 %.06, 1
  %4 = lshr i32 %.045, 1
  %5 = icmp ugt i32 %.045, 3
  br i1 %5, label %.lr.ph, label %._crit_edge, !llvm.loop !24

._crit_edge:                                      ; preds = %.lr.ph, %1
  %.0.lcssa = phi i32 [ 0, %1 ], [ %3, %.lr.ph ]
  ret i32 %.0.lcssa
}